target datalayout = "e-m:e-p270:32:32-p271:32:32-p272:64:64-i64:64-i128:128-f80:128-n8:16:32:64-S128"
target triple = "x86_64-pc-linux-gnu"

%struct.AVFilterContext = type { ptr, ptr, ptr, ptr, ptr, i32, ptr, ptr, i32, ptr, ptr, i32, i32, ptr, ptr, ptr, ptr, i32, ptr, i32, i32 }
%struct.AVFilterLink = type { ptr, ptr, ptr, ptr, i32, i32, i32, i32, %struct.AVRational, i32, i32, i32, %struct.AVChannelLayout, %struct.AVRational, ptr, i32, %struct.AVFilterFormatsConfig, %struct.AVFilterFormatsConfig }
%struct.AVChannelLayout = type { i32, i32, %union.anon.1, ptr }
%union.anon.1 = type { i64 }
%struct.AVRational = type { i32, i32 }
%struct.AVFilterFormatsConfig = type { ptr, ptr, ptr, ptr, ptr }
%struct.LumakeyContext = type { ptr, double, double, double, i32, i32, i32, i32, ptr }
%struct.AVPixFmtDescriptor = type { ptr, i8, i8, i8, i64, [4 x %struct.AVComponentDescriptor], ptr }
%struct.AVComponentDescriptor = type { i32, i32, i32, i32, i32 }

; Function Attrs: alwaysinline nounwind willreturn memory(none) uwtable
define internal i32 @av_clip_c(i32 noundef %0, i32 noundef %1, i32 noundef %2) #4 {
  %4 = alloca i32, align 4
  %5 = alloca i32, align 4
  %6 = alloca i32, align 4
  %7 = alloca i32, align 4
  store i32 %0, ptr %5, align 4, !tbaa !11
  store i32 %1, ptr %6, align 4, !tbaa !11
  store i32 %2, ptr %7, align 4, !tbaa !11
  %8 = load i32, ptr %5, align 4, !tbaa !11
  %9 = load i32, ptr %6, align 4, !tbaa !11
  %10 = icmp slt i32 %8, %9
  br i1 %10, label %11, label %13

11:                                               ; preds = %3
  %12 = load i32, ptr %6, align 4, !tbaa !11
  store i32 %12, ptr %4, align 4
  br label %21

13:                                               ; preds = %3
  %14 = load i32, ptr %5, align 4, !tbaa !11
  %15 = load i32, ptr %7, align 4, !tbaa !11
  %16 = icmp sgt i32 %14, %15
  br i1 %16, label %17, label %19

17:                                               ; preds = %13
  %18 = load i32, ptr %7, align 4, !tbaa !11
  store i32 %18, ptr %4, align 4
  br label %21

19:                                               ; preds = %13
  %20 = load i32, ptr %5, align 4, !tbaa !11
  store i32 %20, ptr %4, align 4
  br label %21

21:                                               ; preds = %19, %17, %11
  %22 = load i32, ptr %4, align 4
  ret i32 %22
}

; Function Attrs: alwaysinline nounwind willreturn memory(none) uwtable
define internal zeroext i8 @av_clip_uint8_c(i32 noundef %0) #4 {
  %2 = alloca i8, align 1
  %3 = alloca i32, align 4
  store i32 %0, ptr %3, align 4, !tbaa !11
  %4 = load i32, ptr %3, align 4, !tbaa !11
  %5 = and i32 %4, -256
  %6 = icmp ne i32 %5, 0
  br i1 %6, label %7, label %12

7:                                                ; preds = %1
  %8 = load i32, ptr %3, align 4, !tbaa !11
  %9 = xor i32 %8, -1
  %10 = ashr i32 %9, 31
  %11 = trunc i32 %10 to i8
  store i8 %11, ptr %2, align 1
  br label %15

12:                                               ; preds = %1
  %13 = load i32, ptr %3, align 4, !tbaa !11
  %14 = trunc i32 %13 to i8
  store i8 %14, ptr %2, align 1
  br label %15

15:                                               ; preds = %12, %7
  %16 = load i8, ptr %2, align 1
  ret i8 %16
}

; Function Attrs: nounwind uwtable
define internal i32 @config_input(ptr noundef %0) #0 {
  %2 = alloca ptr, align 8
  %3 = alloca ptr, align 8
  %4 = alloca ptr, align 8
  %5 = alloca ptr, align 8
  %6 = alloca i32, align 4
  store ptr %0, ptr %2, align 8, !tbaa !24
  call void @llvm.lifetime.start.p0(i64 8, ptr %3) #5
  %7 = load ptr, ptr %2, align 8, !tbaa !24
  %8 = getelementptr inbounds nuw %struct.AVFilterLink, ptr %7, i32 0, i32 5
  %9 = load i32, ptr %8, align 4, !tbaa !49
  %10 = call ptr @av_pix_fmt_desc_get(i32 noundef %9)
  store ptr %10, ptr %3, align 8, !tbaa !50
  call void @llvm.lifetime.start.p0(i64 8, ptr %4) #5
  %11 = load ptr, ptr %2, align 8, !tbaa !24
  %12 = getelementptr inbounds nuw %struct.AVFilterLink, ptr %11, i32 0, i32 2
  %13 = load ptr, ptr %12, align 8, !tbaa !28
  store ptr %13, ptr %4, align 8, !tbaa !4
  call void @llvm.lifetime.start.p0(i64 8, ptr %5) #5
  %14 = load ptr, ptr %4, align 8, !tbaa !4
  %15 = getelementptr inbounds nuw %struct.AVFilterContext, ptr %14, i32 0, i32 9
  %16 = load ptr, ptr %15, align 8, !tbaa !36
  store ptr %16, ptr %5, align 8, !tbaa !37
  call void @llvm.lifetime.start.p0(i64 4, ptr %6) #5
  %17 = load ptr, ptr %3, align 8, !tbaa !50
  %18 = getelementptr inbounds nuw %struct.AVPixFmtDescriptor, ptr %17, i32 0, i32 5
  %19 = getelementptr inbounds [4 x %struct.AVComponentDescriptor], ptr %18, i64 0, i64 0
  %20 = getelementptr inbounds nuw %struct.AVComponentDescriptor, ptr %19, i32 0, i32 4
  %21 = load i32, ptr %20, align 8, !tbaa !52
  store i32 %21, ptr %6, align 4, !tbaa !11
  %22 = load i32, ptr %6, align 4, !tbaa !11
  %23 = icmp eq i32 %22, 8
  br i1 %23, label %24, label %60

24:                                               ; preds = %1
  %25 = load ptr, ptr %5, align 8, !tbaa !37
  %26 = getelementptr inbounds nuw %struct.LumakeyContext, ptr %25, i32 0, i32 1
  %27 = load double, ptr %26, align 8, !tbaa !54
  %28 = load ptr, ptr %5, align 8, !tbaa !37
  %29 = getelementptr inbounds nuw %struct.LumakeyContext, ptr %28, i32 0, i32 2
  %30 = load double, ptr %29, align 8, !tbaa !55
  %31 = fadd nsz double %27, %30
  %32 = fmul nsz double %31, 2.550000e+02
  %33 = fptosi double %32 to i32
  %34 = call zeroext i8 @av_clip_uint8_c(i32 noundef %33) #7
  %35 = zext i8 %34 to i32
  %36 = load ptr, ptr %5, align 8, !tbaa !37
  %37 = getelementptr inbounds nuw %struct.LumakeyContext, ptr %36, i32 0, i32 4
  store i32 %35, ptr %37, align 8, !tbaa !56
  %38 = load ptr, ptr %5, align 8, !tbaa !37
  %39 = getelementptr inbounds nuw %struct.LumakeyContext, ptr %38, i32 0, i32 1
  %40 = load double, ptr %39, align 8, !tbaa !54
  %41 = load ptr, ptr %5, align 8, !tbaa !37
  %42 = getelementptr inbounds nuw %struct.LumakeyContext, ptr %41, i32 0, i32 2
  %43 = load double, ptr %42, align 8, !tbaa !55
  %44 = fsub nsz double %40, %43
  %45 = fmul nsz double %44, 2.550000e+02
  %46 = fptosi double %45 to i32
  %47 = call zeroext i8 @av_clip_uint8_c(i32 noundef %46) #7
  %48 = zext i8 %47 to i32
  %49 = load ptr, ptr %5, align 8, !tbaa !37
  %50 = getelementptr inbounds nuw %struct.LumakeyContext, ptr %49, i32 0, i32 5
  store i32 %48, ptr %50, align 4, !tbaa !57
  %51 = load ptr, ptr %5, align 8, !tbaa !37
  %52 = getelementptr inbounds nuw %struct.LumakeyContext, ptr %51, i32 0, i32 8
  store ptr @do_lumakey_slice8, ptr %52, align 8, !tbaa !39
  %53 = load ptr, ptr %5, align 8, !tbaa !37
  %54 = getelementptr inbounds nuw %struct.LumakeyContext, ptr %53, i32 0, i32 3
  %55 = load double, ptr %54, align 8, !tbaa !58
  %56 = fmul nsz double %55, 2.550000e+02
  %57 = fptosi double %56 to i32
  %58 = load ptr, ptr %5, align 8, !tbaa !37
  %59 = getelementptr inbounds nuw %struct.LumakeyContext, ptr %58, i32 0, i32 6
  store i32 %57, ptr %59, align 8, !tbaa !59
  br label %117

60:                                               ; preds = %1
  %61 = load i32, ptr %6, align 4, !tbaa !11
  %62 = shl i32 1, %61
  %63 = sub nsw i32 %62, 1
  %64 = load ptr, ptr %5, align 8, !tbaa !37
  %65 = getelementptr inbounds nuw %struct.LumakeyContext, ptr %64, i32 0, i32 7
  store i32 %63, ptr %65, align 4, !tbaa !60
  %66 = load ptr, ptr %5, align 8, !tbaa !37
  %67 = getelementptr inbounds nuw %struct.LumakeyContext, ptr %66, i32 0, i32 1
  %68 = load double, ptr %67, align 8, !tbaa !54
  %69 = load ptr, ptr %5, align 8, !tbaa !37
  %70 = getelementptr inbounds nuw %struct.LumakeyContext, ptr %69, i32 0, i32 2
  %71 = load double, ptr %70, align 8, !tbaa !55
  %72 = fadd nsz double %68, %71
  %73 = load ptr, ptr %5, align 8, !tbaa !37
  %74 = getelementptr inbounds nuw %struct.LumakeyContext, ptr %73, i32 0, i32 7
  %75 = load i32, ptr %74, align 4, !tbaa !60
  %76 = sitofp i32 %75 to double
  %77 = fmul nsz double %72, %76
  %78 = fptosi double %77 to i32
  %79 = load ptr, ptr %5, align 8, !tbaa !37
  %80 = getelementptr inbounds nuw %struct.LumakeyContext, ptr %79, i32 0, i32 7
  %81 = load i32, ptr %80, align 4, !tbaa !60
  %82 = call i32 @av_clip_c(i32 noundef %78, i32 noundef 0, i32 noundef %81) #7
  %83 = load ptr, ptr %5, align 8, !tbaa !37
  %84 = getelementptr inbounds nuw %struct.LumakeyContext, ptr %83, i32 0, i32 4
  store i32 %82, ptr %84, align 8, !tbaa !56
  %85 = load ptr, ptr %5, align 8, !tbaa !37
  %86 = getelementptr inbounds nuw %struct.LumakeyContext, ptr %85, i32 0, i32 1
  %87 = load double, ptr %86, align 8, !tbaa !54
  %88 = load ptr, ptr %5, align 8, !tbaa !37
  %89 = getelementptr inbounds nuw %struct.LumakeyContext, ptr %88, i32 0, i32 2
  %90 = load double, ptr %89, align 8, !tbaa !55
  %91 = fsub nsz double %87, %90
  %92 = load ptr, ptr %5, align 8, !tbaa !37
  %93 = getelementptr inbounds nuw %struct.LumakeyContext, ptr %92, i32 0, i32 7
  %94 = load i32, ptr %93, align 4, !tbaa !60
  %95 = sitofp i32 %94 to double
  %96 = fmul nsz double %91, %95
  %97 = fptosi double %96 to i32
  %98 = load ptr, ptr %5, align 8, !tbaa !37
  %99 = getelementptr inbounds nuw %struct.LumakeyContext, ptr %98, i32 0, i32 7
  %100 = load i32, ptr %99, align 4, !tbaa !60
  %101 = call i32 @av_clip_c(i32 noundef %97, i32 noundef 0, i32 noundef %100) #7
  %102 = load ptr, ptr %5, align 8, !tbaa !37
  %103 = getelementptr inbounds nuw %struct.LumakeyContext, ptr %102, i32 0, i32 5
  store i32 %101, ptr %103, align 4, !tbaa !57
  %104 = load ptr, ptr %5, align 8, !tbaa !37
  %105 = getelementptr inbounds nuw %struct.LumakeyContext, ptr %104, i32 0, i32 8
  store ptr @do_lumakey_slice16, ptr %105, align 8, !tbaa !39
  %106 = load ptr, ptr %5, align 8, !tbaa !37
  %107 = getelementptr inbounds nuw %struct.LumakeyContext, ptr %106, i32 0, i32 3
  %108 = load double, ptr %107, align 8, !tbaa !58
  %109 = load ptr, ptr %5, align 8, !tbaa !37
  %110 = getelementptr inbounds nuw %struct.LumakeyContext, ptr %109, i32 0, i32 7
  %111 = load i32, ptr %110, align 4, !tbaa !60
  %112 = sitofp i32 %111 to double
  %113 = fmul nsz double %108, %112
  %114 = fptosi double %113 to i32
  %115 = load ptr, ptr %5, align 8, !tbaa !37
  %116 = getelementptr inbounds nuw %struct.LumakeyContext, ptr %115, i32 0, i32 6
  store i32 %114, ptr %116, align 8, !tbaa !59
  br label %117

117:                                              ; preds = %60, %24
  call void @llvm.lifetime.end.p0(i64 4, ptr %6) #5
  call void @llvm.lifetime.end.p0(i64 8, ptr %5) #5
  call void @llvm.lifetime.end.p0(i64 8, ptr %4) #5
  call void @llvm.lifetime.end.p0(i64 8, ptr %3) #5
  ret i32 0
}