; Function Attrs: nounwind uwtable
define internal noundef i32 @config_input(ptr noundef readonly captures(none) %0) #0 {
  %2 = getelementptr inbounds nuw i8, ptr %0, i64 36
  %3 = load i32, ptr %2, align 4, !tbaa !22
  %4 = tail call ptr @av_pix_fmt_desc_get(i32 noundef %3) #5
  %5 = getelementptr inbounds nuw i8, ptr %0, i64 16
  %6 = load ptr, ptr %5, align 8, !tbaa !31
  %7 = getelementptr inbounds nuw i8, ptr %6, i64 72
  %8 = load ptr, ptr %7, align 8, !tbaa !32
  %9 = getelementptr inbounds nuw i8, ptr %4, i64 40
  %10 = load i32, ptr %9, align 8, !tbaa !33
  %11 = icmp eq i32 %10, 8
  br i1 %11, label %12, label %27

12:                                               ; preds = %1
  %13 = getelementptr inbounds nuw i8, ptr %8, i64 8
  %14 = load double, ptr %13, align 8, !tbaa !35
  %15 = getelementptr inbounds nuw i8, ptr %8, i64 16
  %16 = load double, ptr %15, align 8, !tbaa !38
  %17 = fadd nsz double %14, %16
  %18 = fmul nsz double %17, 2.550000e+02
  %19 = fptosi double %18 to i32
  %.not.i = icmp ult i32 %19, 256
  %isnotneg.i = icmp sgt i32 %19, -1
  %20 = sext i1 %isnotneg.i to i32
  %.0.i = select i1 %.not.i, i32 %19, i32 %20
  %21 = and i32 %.0.i, 255
  %22 = fsub nsz double %14, %16
  %23 = fmul nsz double %22, 2.550000e+02
  %24 = fptosi double %23 to i32
  %.not.i29 = icmp ult i32 %24, 256
  %isnotneg.i30 = icmp sgt i32 %24, -1
  %25 = sext i1 %isnotneg.i30 to i32
  %.0.i31 = select i1 %.not.i29, i32 %24, i32 %25
  %26 = and i32 %.0.i31, 255
  br label %43

27:                                               ; preds = %1
  %notmask = shl nsw i32 -1, %10
  %28 = xor i32 %notmask, -1
  %29 = getelementptr inbounds nuw i8, ptr %8, i64 44
  store i32 %28, ptr %29, align 4, !tbaa !39
  %30 = getelementptr inbounds nuw i8, ptr %8, i64 8
  %31 = load double, ptr %30, align 8, !tbaa !35
  %32 = getelementptr inbounds nuw i8, ptr %8, i64 16
  %33 = load double, ptr %32, align 8, !tbaa !38
  %34 = fadd nsz double %31, %33
  %35 = uitofp nneg i32 %28 to double
  %36 = fmul nsz double %34, %35
  %37 = fptosi double %36 to i32
  %38 = icmp slt i32 %37, 0
  %..i = tail call i32 @llvm.smin.i32(i32 %37, i32 %28)
  %.0.i32 = select i1 %38, i32 0, i32 %..i
  %39 = fsub nsz double %31, %33
  %40 = fmul nsz double %39, %35
  %41 = fptosi double %40 to i32
  %42 = icmp slt i32 %41, 0
  %..i33 = tail call i32 @llvm.smin.i32(i32 %41, i32 %28)
  %.0.i34 = select i1 %42, i32 0, i32 %..i33
  br label %43

43:                                               ; preds = %27, %12
  %.sink36 = phi double [ %35, %27 ], [ 2.550000e+02, %12 ]
  %.0.i32.sink = phi i32 [ %.0.i32, %27 ], [ %21, %12 ]
  %.0.i34.sink = phi i32 [ %.0.i34, %27 ], [ %26, %12 ]
  %do_lumakey_slice16.sink = phi ptr [ @do_lumakey_slice16, %27 ], [ @do_lumakey_slice8, %12 ]
  %44 = getelementptr inbounds nuw i8, ptr %8, i64 24
  %45 = load double, ptr %44, align 8, !tbaa !40
  %46 = fmul nsz double %45, %.sink36
  %.sink = fptosi double %46 to i32
  %47 = getelementptr inbounds nuw i8, ptr %8, i64 32
  store i32 %.0.i32.sink, ptr %47, align 8, !tbaa !41
  %48 = getelementptr inbounds nuw i8, ptr %8, i64 36
  store i32 %.0.i34.sink, ptr %48, align 4, !tbaa !42
  %49 = getelementptr inbounds nuw i8, ptr %8, i64 48
  store ptr %do_lumakey_slice16.sink, ptr %49, align 8, !tbaa !43
  %50 = getelementptr inbounds nuw i8, ptr %8, i64 40
  store i32 %.sink, ptr %50, align 8, !tbaa !44
  ret i32 0
}